target datalayout = "e-m:e-p270:32:32-p271:32:32-p272:64:64-i64:64-i128:128-f80:128-n8:16:32:64-S128"
target triple = "x86_64-pc-linux-gnu"

%struct.archive_read = type { %struct.archive, ptr, i32, i64, i64, %struct.archive_read_client, [16 x %struct.archive_read_filter_bidder], ptr, i32, i64, i32, i32, [16 x %struct.archive_format_descriptor], ptr, ptr, ptr, %struct.anon }
%struct.archive = type { i32, i32, ptr, i32, ptr, i32, i32, ptr, %struct.archive_string, ptr, i32, i32, ptr, ptr, i64, i64, i64, i8, i64 }
%struct.archive_string = type { ptr, i64, i64 }
%struct.archive_read_client = type { ptr, ptr, ptr, ptr, ptr, ptr, i32, i32, i64, ptr }
%struct.archive_read_filter_bidder = type { ptr, ptr, ptr }
%struct.archive_format_descriptor = type { ptr, ptr, ptr, ptr, ptr, ptr, ptr, ptr, ptr, ptr, ptr }
%struct.anon = type { ptr, ptr, i32, ptr, ptr }
%struct.archive_read_filter = type { i64, ptr, ptr, ptr, ptr, ptr, ptr, i32, i32, i32, ptr, i64, ptr, i64, ptr, i64, ptr, i64, i8, i8, i8 }
%struct.archive_read_filter_bidder_vtable = type { ptr, ptr, ptr }

@.str = private unnamed_addr constant [5 x i8] c"gzip\00", align 1
@.str.1 = private unnamed_addr constant [6 x i8] c"bzip2\00", align 1
@.str.2 = private unnamed_addr constant [14 x i8] c"compress (.Z)\00", align 1
@.str.3 = private unnamed_addr constant [62 x i8] c"Cannot append program filter using archive_read_append_filter\00", align 1
@.str.4 = private unnamed_addr constant [5 x i8] c"lzma\00", align 1
@.str.5 = private unnamed_addr constant [3 x i8] c"xz\00", align 1
@.str.6 = private unnamed_addr constant [3 x i8] c"uu\00", align 1
@.str.7 = private unnamed_addr constant [4 x i8] c"rpm\00", align 1
@.str.8 = private unnamed_addr constant [4 x i8] c"lz4\00", align 1
@.str.9 = private unnamed_addr constant [5 x i8] c"zstd\00", align 1
@.str.10 = private unnamed_addr constant [5 x i8] c"lzip\00", align 1
@.str.11 = private unnamed_addr constant [6 x i8] c"lrzip\00", align 1
@.str.12 = private unnamed_addr constant [30 x i8] c"Invalid filter code specified\00", align 1
@.str.13 = private unnamed_addr constant [40 x i8] c"Internal error: Unable to append filter\00", align 1
@.str.14 = private unnamed_addr constant [14 x i8] c"Out of memory\00", align 1

; Function Attrs: nounwind uwtable
define dso_local i32 @archive_read_append_filter(ptr noundef %0, i32 noundef %1) #0 {
  %3 = alloca i32, align 4
  %4 = alloca ptr, align 8
  %5 = alloca i32, align 4
  %6 = alloca i32, align 4
  %7 = alloca i32, align 4
  %8 = alloca i32, align 4
  %9 = alloca i32, align 4
  %10 = alloca [20 x i8], align 16
  %11 = alloca ptr, align 8
  %12 = alloca ptr, align 8
  %13 = alloca ptr, align 8
  %14 = alloca i32, align 4
  store ptr %0, ptr %4, align 8, !tbaa !4
  store i32 %1, ptr %5, align 4, !tbaa !9
  call void @llvm.lifetime.start.p0(i64 4, ptr %6) #6
  call void @llvm.lifetime.start.p0(i64 4, ptr %7) #6
  call void @llvm.lifetime.start.p0(i64 4, ptr %8) #6
  call void @llvm.lifetime.start.p0(i64 4, ptr %9) #6
  call void @llvm.lifetime.start.p0(i64 20, ptr %10) #6
  call void @llvm.lifetime.start.p0(i64 8, ptr %11) #6
  call void @llvm.lifetime.start.p0(i64 8, ptr %12) #6
  call void @llvm.lifetime.start.p0(i64 8, ptr %13) #6
  %15 = load ptr, ptr %4, align 8, !tbaa !4
  store ptr %15, ptr %13, align 8, !tbaa !11
  store i32 0, ptr %7, align 4, !tbaa !9
  %16 = load i32, ptr %5, align 4, !tbaa !9
  switch i32 %16, label %76 [
    i32 0, label %17
    i32 1, label %18
    i32 2, label %23
    i32 3, label %28
    i32 4, label %33
    i32 5, label %36
    i32 6, label %41
    i32 7, label %46
    i32 8, label %51
    i32 13, label %56
    i32 14, label %61
    i32 9, label %66
    i32 10, label %71
  ]

17:                                               ; preds = %2
  store i32 0, ptr %6, align 4, !tbaa !9
  br label %79

18:                                               ; preds = %2
  %19 = getelementptr inbounds [20 x i8], ptr %10, i64 0, i64 0
  %20 = call ptr @strcpy(ptr noundef %19, ptr noundef @.str) #6
  %21 = load ptr, ptr %4, align 8, !tbaa !4
  %22 = call i32 @archive_read_support_filter_gzip(ptr noundef %21)
  store i32 %22, ptr %6, align 4, !tbaa !9
  br label %79

23:                                               ; preds = %2
  %24 = getelementptr inbounds [20 x i8], ptr %10, i64 0, i64 0
  %25 = call ptr @strcpy(ptr noundef %24, ptr noundef @.str.1) #6
  %26 = load ptr, ptr %4, align 8, !tbaa !4
  %27 = call i32 @archive_read_support_filter_bzip2(ptr noundef %26)
  store i32 %27, ptr %6, align 4, !tbaa !9
  br label %79

28:                                               ; preds = %2
  %29 = getelementptr inbounds [20 x i8], ptr %10, i64 0, i64 0
  %30 = call ptr @strcpy(ptr noundef %29, ptr noundef @.str.2) #6
  %31 = load ptr, ptr %4, align 8, !tbaa !4
  %32 = call i32 @archive_read_support_filter_compress(ptr noundef %31)
  store i32 %32, ptr %6, align 4, !tbaa !9
  br label %79

33:                                               ; preds = %2
  %34 = load ptr, ptr %13, align 8, !tbaa !11
  %35 = getelementptr inbounds nuw %struct.archive_read, ptr %34, i32 0, i32 0
  call void (ptr, i32, ptr, ...) @archive_set_error(ptr noundef %35, i32 noundef 22, ptr noundef @.str.3)
  store i32 -30, ptr %3, align 4
  store i32 1, ptr %14, align 4
  br label %172

36:                                               ; preds = %2
  %37 = getelementptr inbounds [20 x i8], ptr %10, i64 0, i64 0
  %38 = call ptr @strcpy(ptr noundef %37, ptr noundef @.str.4) #6
  %39 = load ptr, ptr %4, align 8, !tbaa !4
  %40 = call i32 @archive_read_support_filter_lzma(ptr noundef %39)
  store i32 %40, ptr %6, align 4, !tbaa !9
  br label %79

41:                                               ; preds = %2
  %42 = getelementptr inbounds [20 x i8], ptr %10, i64 0, i64 0
  %43 = call ptr @strcpy(ptr noundef %42, ptr noundef @.str.5) #6
  %44 = load ptr, ptr %4, align 8, !tbaa !4
  %45 = call i32 @archive_read_support_filter_xz(ptr noundef %44)
  store i32 %45, ptr %6, align 4, !tbaa !9
  br label %79

46:                                               ; preds = %2
  %47 = getelementptr inbounds [20 x i8], ptr %10, i64 0, i64 0
  %48 = call ptr @strcpy(ptr noundef %47, ptr noundef @.str.6) #6
  %49 = load ptr, ptr %4, align 8, !tbaa !4
  %50 = call i32 @archive_read_support_filter_uu(ptr noundef %49)
  store i32 %50, ptr %6, align 4, !tbaa !9
  br label %79

51:                                               ; preds = %2
  %52 = getelementptr inbounds [20 x i8], ptr %10, i64 0, i64 0
  %53 = call ptr @strcpy(ptr noundef %52, ptr noundef @.str.7) #6
  %54 = load ptr, ptr %4, align 8, !tbaa !4
  %55 = call i32 @archive_read_support_filter_rpm(ptr noundef %54)
  store i32 %55, ptr %6, align 4, !tbaa !9
  br label %79

56:                                               ; preds = %2
  %57 = getelementptr inbounds [20 x i8], ptr %10, i64 0, i64 0
  %58 = call ptr @strcpy(ptr noundef %57, ptr noundef @.str.8) #6
  %59 = load ptr, ptr %4, align 8, !tbaa !4
  %60 = call i32 @archive_read_support_filter_lz4(ptr noundef %59)
  store i32 %60, ptr %6, align 4, !tbaa !9
  br label %79

61:                                               ; preds = %2
  %62 = getelementptr inbounds [20 x i8], ptr %10, i64 0, i64 0
  %63 = call ptr @strcpy(ptr noundef %62, ptr noundef @.str.9) #6
  %64 = load ptr, ptr %4, align 8, !tbaa !4
  %65 = call i32 @archive_read_support_filter_zstd(ptr noundef %64)
  store i32 %65, ptr %6, align 4, !tbaa !9
  br label %79

66:                                               ; preds = %2
  %67 = getelementptr inbounds [20 x i8], ptr %10, i64 0, i64 0
  %68 = call ptr @strcpy(ptr noundef %67, ptr noundef @.str.10) #6
  %69 = load ptr, ptr %4, align 8, !tbaa !4
  %70 = call i32 @archive_read_support_filter_lzip(ptr noundef %69)
  store i32 %70, ptr %6, align 4, !tbaa !9
  br label %79

71:                                               ; preds = %2
  %72 = getelementptr inbounds [20 x i8], ptr %10, i64 0, i64 0
  %73 = call ptr @strcpy(ptr noundef %72, ptr noundef @.str.11) #6
  %74 = load ptr, ptr %4, align 8, !tbaa !4
  %75 = call i32 @archive_read_support_filter_lrzip(ptr noundef %74)
  store i32 %75, ptr %6, align 4, !tbaa !9
  br label %79

76:                                               ; preds = %2
  %77 = load ptr, ptr %13, align 8, !tbaa !11
  %78 = getelementptr inbounds nuw %struct.archive_read, ptr %77, i32 0, i32 0
  call void (ptr, i32, ptr, ...) @archive_set_error(ptr noundef %78, i32 noundef 22, ptr noundef @.str.12)
  store i32 -30, ptr %3, align 4
  store i32 1, ptr %14, align 4
  br label %172

79:                                               ; preds = %71, %66, %61, %56, %51, %46, %41, %36, %28, %23, %18, %17
  %80 = load i32, ptr %5, align 4, !tbaa !9
  %81 = icmp ne i32 %80, 0
  br i1 %81, label %82, label %160

82:                                               ; preds = %79
  store i32 16, ptr %8, align 4, !tbaa !9
  %83 = load ptr, ptr %13, align 8, !tbaa !11
  %84 = getelementptr inbounds nuw %struct.archive_read, ptr %83, i32 0, i32 6
  %85 = getelementptr inbounds [16 x %struct.archive_read_filter_bidder], ptr %84, i64 0, i64 0
  store ptr %85, ptr %11, align 8, !tbaa !13
  store i32 1, ptr %9, align 4, !tbaa !9
  br label %86

86:                                               ; preds = %104, %82
  %87 = load i32, ptr %9, align 4, !tbaa !9
  %88 = load i32, ptr %8, align 4, !tbaa !9
  %89 = icmp slt i32 %87, %88
  br i1 %89, label %90, label %109

90:                                               ; preds = %86
  %91 = load ptr, ptr %11, align 8, !tbaa !13
  %92 = getelementptr inbounds nuw %struct.archive_read_filter_bidder, ptr %91, i32 0, i32 1
  %93 = load ptr, ptr %92, align 8, !tbaa !15
  %94 = icmp ne ptr %93, null
  br i1 %94, label %95, label %102

95:                                               ; preds = %90
  %96 = load ptr, ptr %11, align 8, !tbaa !13
  %97 = getelementptr inbounds nuw %struct.archive_read_filter_bidder, ptr %96, i32 0, i32 1
  %98 = load ptr, ptr %97, align 8, !tbaa !15
  %99 = getelementptr inbounds [20 x i8], ptr %10, i64 0, i64 0
  %100 = call i32 @strcmp(ptr noundef %98, ptr noundef %99) #7
  %101 = icmp ne i32 %100, 0
  br i1 %101, label %103, label %102

102:                                              ; preds = %95, %90
  br label %109

103:                                              ; preds = %95
  br label %104

104:                                              ; preds = %103
  %105 = load i32, ptr %9, align 4, !tbaa !9
  %106 = add nsw i32 %105, 1
  store i32 %106, ptr %9, align 4, !tbaa !9
  %107 = load ptr, ptr %11, align 8, !tbaa !13
  %108 = getelementptr inbounds nuw %struct.archive_read_filter_bidder, ptr %107, i32 1
  store ptr %108, ptr %11, align 8, !tbaa !13
  br label %86, !llvm.loop !19

109:                                              ; preds = %102, %86
  %110 = load ptr, ptr %11, align 8, !tbaa !13
  %111 = getelementptr inbounds nuw %struct.archive_read_filter_bidder, ptr %110, i32 0, i32 1
  %112 = load ptr, ptr %111, align 8, !tbaa !15
  %113 = icmp ne ptr %112, null
  br i1 %113, label %114, label %121

114:                                              ; preds = %109
  %115 = load ptr, ptr %11, align 8, !tbaa !13
  %116 = getelementptr inbounds nuw %struct.archive_read_filter_bidder, ptr %115, i32 0, i32 1
  %117 = load ptr, ptr %116, align 8, !tbaa !15
  %118 = getelementptr inbounds [20 x i8], ptr %10, i64 0, i64 0
  %119 = call i32 @strcmp(ptr noundef %117, ptr noundef %118) #7
  %120 = icmp ne i32 %119, 0
  br i1 %120, label %121, label %124

121:                                              ; preds = %114, %109
  %122 = load ptr, ptr %13, align 8, !tbaa !11
  %123 = getelementptr inbounds nuw %struct.archive_read, ptr %122, i32 0, i32 0
  call void (ptr, i32, ptr, ...) @archive_set_error(ptr noundef %123, i32 noundef 22, ptr noundef @.str.13)
  store i32 -30, ptr %3, align 4
  store i32 1, ptr %14, align 4
  br label %172

124:                                              ; preds = %114
  %125 = call noalias ptr @calloc(i64 noundef 1, i64 noundef 144) #8
  store ptr %125, ptr %12, align 8, !tbaa !21
  %126 = load ptr, ptr %12, align 8, !tbaa !21
  %127 = icmp eq ptr %126, null
  br i1 %127, label %128, label %131

128:                                              ; preds = %124
  %129 = load ptr, ptr %13, align 8, !tbaa !11
  %130 = getelementptr inbounds nuw %struct.archive_read, ptr %129, i32 0, i32 0
  call void (ptr, i32, ptr, ...) @archive_set_error(ptr noundef %130, i32 noundef 12, ptr noundef @.str.14)
  store i32 -30, ptr %3, align 4
  store i32 1, ptr %14, align 4
  br label %172

131:                                              ; preds = %124
  %132 = load ptr, ptr %11, align 8, !tbaa !13
  %133 = load ptr, ptr %12, align 8, !tbaa !21
  %134 = getelementptr inbounds nuw %struct.archive_read_filter, ptr %133, i32 0, i32 1
  store ptr %132, ptr %134, align 8, !tbaa !23
  %135 = load ptr, ptr %13, align 8, !tbaa !11
  %136 = load ptr, ptr %12, align 8, !tbaa !21
  %137 = getelementptr inbounds nuw %struct.archive_read_filter, ptr %136, i32 0, i32 3
  store ptr %135, ptr %137, align 8, !tbaa !27
  %138 = load ptr, ptr %13, align 8, !tbaa !11
  %139 = getelementptr inbounds nuw %struct.archive_read, ptr %138, i32 0, i32 7
  %140 = load ptr, ptr %139, align 8, !tbaa !28
  %141 = load ptr, ptr %12, align 8, !tbaa !21
  %142 = getelementptr inbounds nuw %struct.archive_read_filter, ptr %141, i32 0, i32 2
  store ptr %140, ptr %142, align 8, !tbaa !42
  %143 = load ptr, ptr %12, align 8, !tbaa !21
  %144 = load ptr, ptr %13, align 8, !tbaa !11
  %145 = getelementptr inbounds nuw %struct.archive_read, ptr %144, i32 0, i32 7
  store ptr %143, ptr %145, align 8, !tbaa !28
  %146 = load ptr, ptr %11, align 8, !tbaa !13
  %147 = getelementptr inbounds nuw %struct.archive_read_filter_bidder, ptr %146, i32 0, i32 2
  %148 = load ptr, ptr %147, align 8, !tbaa !43
  %149 = getelementptr inbounds nuw %struct.archive_read_filter_bidder_vtable, ptr %148, i32 0, i32 1
  %150 = load ptr, ptr %149, align 8, !tbaa !44
  %151 = load ptr, ptr %13, align 8, !tbaa !11
  %152 = getelementptr inbounds nuw %struct.archive_read, ptr %151, i32 0, i32 7
  %153 = load ptr, ptr %152, align 8, !tbaa !28
  %154 = call i32 %150(ptr noundef %153)
  store i32 %154, ptr %7, align 4, !tbaa !9
  %155 = load i32, ptr %7, align 4, !tbaa !9
  %156 = icmp ne i32 %155, 0
  br i1 %156, label %157, label %159

157:                                              ; preds = %131
  %158 = load ptr, ptr %13, align 8, !tbaa !11
  call void @__archive_read_free_filters(ptr noundef %158)
  store i32 -30, ptr %3, align 4
  store i32 1, ptr %14, align 4
  br label %172

159:                                              ; preds = %131
  br label %160

160:                                              ; preds = %159, %79
  %161 = load ptr, ptr %13, align 8, !tbaa !11
  %162 = getelementptr inbounds nuw %struct.archive_read, ptr %161, i32 0, i32 8
  store i32 1, ptr %162, align 8, !tbaa !46
  %163 = load i32, ptr %6, align 4, !tbaa !9
  %164 = load i32, ptr %7, align 4, !tbaa !9
  %165 = icmp slt i32 %163, %164
  br i1 %165, label %166, label %168

166:                                              ; preds = %160
  %167 = load i32, ptr %6, align 4, !tbaa !9
  br label %170

168:                                              ; preds = %160
  %169 = load i32, ptr %7, align 4, !tbaa !9
  br label %170

170:                                              ; preds = %168, %166
  %171 = phi i32 [ %167, %166 ], [ %169, %168 ]
  store i32 %171, ptr %3, align 4
  store i32 1, ptr %14, align 4
  br label %172

172:                                              ; preds = %170, %157, %128, %121, %76, %33
  call void @llvm.lifetime.end.p0(i64 8, ptr %13) #6
  call void @llvm.lifetime.end.p0(i64 8, ptr %12) #6
  call void @llvm.lifetime.end.p0(i64 8, ptr %11) #6
  call void @llvm.lifetime.end.p0(i64 20, ptr %10) #6
  call void @llvm.lifetime.end.p0(i64 4, ptr %9) #6
  call void @llvm.lifetime.end.p0(i64 4, ptr %8) #6
  call void @llvm.lifetime.end.p0(i64 4, ptr %7) #6
  call void @llvm.lifetime.end.p0(i64 4, ptr %6) #6
  %173 = load i32, ptr %3, align 4
  ret i32 %173
}