; Function Attrs: nounwind uwtable
define dso_local range(i32 -2147483648, 1) i32 @archive_read_append_filter(ptr noundef %0, i32 noundef %1) local_unnamed_addr #0 {
  %3 = alloca [20 x i8], align 16
  call void @llvm.lifetime.start.p0(i64 20, ptr nonnull %3) #7
  switch i32 %1, label %27 [
    i32 0, label %56
    i32 1, label %4
    i32 2, label %6
    i32 3, label %8
    i32 4, label %10
    i32 5, label %11
    i32 6, label %13
    i32 7, label %15
    i32 8, label %17
    i32 13, label %19
    i32 14, label %21
    i32 9, label %23
    i32 10, label %25
  ]

4:                                                ; preds = %2
  call void @llvm.memcpy.p0.p0.i64(ptr noundef nonnull align 16 dereferenceable(5) %3, ptr noundef nonnull align 1 dereferenceable(5) @.str, i64 5, i1 false) #7
  %5 = tail call i32 @archive_read_support_filter_gzip(ptr noundef %0) #7
  br label %28

6:                                                ; preds = %2
  call void @llvm.memcpy.p0.p0.i64(ptr noundef nonnull align 16 dereferenceable(6) %3, ptr noundef nonnull align 1 dereferenceable(6) @.str.1, i64 6, i1 false) #7
  %7 = tail call i32 @archive_read_support_filter_bzip2(ptr noundef %0) #7
  br label %28

8:                                                ; preds = %2
  call void @llvm.memcpy.p0.p0.i64(ptr noundef nonnull align 16 dereferenceable(14) %3, ptr noundef nonnull align 1 dereferenceable(14) @.str.2, i64 14, i1 false) #7
  %9 = tail call i32 @archive_read_support_filter_compress(ptr noundef %0) #7
  br label %28

10:                                               ; preds = %2
  tail call void (ptr, i32, ptr, ...) @archive_set_error(ptr noundef %0, i32 noundef 22, ptr noundef nonnull @.str.3) #7
  br label %59

11:                                               ; preds = %2
  call void @llvm.memcpy.p0.p0.i64(ptr noundef nonnull align 16 dereferenceable(5) %3, ptr noundef nonnull align 1 dereferenceable(5) @.str.4, i64 5, i1 false) #7
  %12 = tail call i32 @archive_read_support_filter_lzma(ptr noundef %0) #7
  br label %28

13:                                               ; preds = %2
  call void @llvm.memcpy.p0.p0.i64(ptr noundef nonnull align 16 dereferenceable(3) %3, ptr noundef nonnull align 1 dereferenceable(3) @.str.5, i64 3, i1 false) #7
  %14 = tail call i32 @archive_read_support_filter_xz(ptr noundef %0) #7
  br label %28

15:                                               ; preds = %2
  call void @llvm.memcpy.p0.p0.i64(ptr noundef nonnull align 16 dereferenceable(3) %3, ptr noundef nonnull align 1 dereferenceable(3) @.str.6, i64 3, i1 false) #7
  %16 = tail call i32 @archive_read_support_filter_uu(ptr noundef %0) #7
  br label %28

17:                                               ; preds = %2
  store i32 7172210, ptr %3, align 16
  %18 = tail call i32 @archive_read_support_filter_rpm(ptr noundef %0) #7
  br label %28

19:                                               ; preds = %2
  store i32 3439212, ptr %3, align 16
  %20 = tail call i32 @archive_read_support_filter_lz4(ptr noundef %0) #7
  br label %28

21:                                               ; preds = %2
  call void @llvm.memcpy.p0.p0.i64(ptr noundef nonnull align 16 dereferenceable(5) %3, ptr noundef nonnull align 1 dereferenceable(5) @.str.9, i64 5, i1 false) #7
  %22 = tail call i32 @archive_read_support_filter_zstd(ptr noundef %0) #7
  br label %28

23:                                               ; preds = %2
  call void @llvm.memcpy.p0.p0.i64(ptr noundef nonnull align 16 dereferenceable(5) %3, ptr noundef nonnull align 1 dereferenceable(5) @.str.10, i64 5, i1 false) #7
  %24 = tail call i32 @archive_read_support_filter_lzip(ptr noundef %0) #7
  br label %28

25:                                               ; preds = %2
  call void @llvm.memcpy.p0.p0.i64(ptr noundef nonnull align 16 dereferenceable(6) %3, ptr noundef nonnull align 1 dereferenceable(6) @.str.11, i64 6, i1 false) #7
  %26 = tail call i32 @archive_read_support_filter_lrzip(ptr noundef %0) #7
  br label %28

27:                                               ; preds = %2
  tail call void (ptr, i32, ptr, ...) @archive_set_error(ptr noundef %0, i32 noundef 22, ptr noundef nonnull @.str.12) #7
  br label %59

28:                                               ; preds = %25, %23, %21, %19, %17, %15, %13, %11, %8, %6, %4
  %.045.ph = phi i32 [ %5, %4 ], [ %7, %6 ], [ %9, %8 ], [ %12, %11 ], [ %14, %13 ], [ %16, %15 ], [ %18, %17 ], [ %20, %19 ], [ %22, %21 ], [ %24, %23 ], [ %26, %25 ]
  %29 = getelementptr inbounds nuw i8, ptr %0, i64 248
  %scevgep = getelementptr i8, ptr %0, i64 608
  br label %30

30:                                               ; preds = %28, %35
  %.04663 = phi ptr [ %29, %28 ], [ %37, %35 ]
  %.04762 = phi i32 [ 1, %28 ], [ %36, %35 ]
  %31 = getelementptr inbounds nuw i8, ptr %.04663, i64 8
  %32 = load ptr, ptr %31, align 8, !tbaa !4
  %.not53 = icmp eq ptr %32, null
  br i1 %.not53, label %split.thread, label %33

33:                                               ; preds = %30
  %34 = call i32 @strcmp(ptr noundef nonnull dereferenceable(1) %32, ptr noundef nonnull dereferenceable(1) %3) #8
  %.not54 = icmp eq i32 %34, 0
  br i1 %.not54, label %split.thread66, label %35

35:                                               ; preds = %33
  %36 = add nuw nsw i32 %.04762, 1
  %37 = getelementptr inbounds nuw i8, ptr %.04663, i64 24
  %exitcond.not = icmp eq i32 %36, 16
  br i1 %exitcond.not, label %split, label %30, !llvm.loop !11

split:                                            ; preds = %35
  %.phi.trans.insert = getelementptr i8, ptr %0, i64 616
  %.pre = load ptr, ptr %.phi.trans.insert, align 8, !tbaa !4
  %.not55 = icmp eq ptr %.pre, null
  br i1 %.not55, label %split.thread, label %split.thread66

split.thread66:                                   ; preds = %33, %split
  %.046.lcssa69 = phi ptr [ %scevgep, %split ], [ %.04663, %33 ]
  %38 = phi ptr [ %.pre, %split ], [ %32, %33 ]
  %39 = call i32 @strcmp(ptr noundef nonnull dereferenceable(1) %38, ptr noundef nonnull dereferenceable(1) %3) #8
  %.not56 = icmp eq i32 %39, 0
  br i1 %.not56, label %40, label %split.thread

split.thread:                                     ; preds = %30, %split.thread66, %split
  tail call void (ptr, i32, ptr, ...) @archive_set_error(ptr noundef %0, i32 noundef 22, ptr noundef nonnull @.str.13) #7
  br label %59

40:                                               ; preds = %split.thread66
  %41 = tail call noalias dereferenceable_or_null(144) ptr @calloc(i64 noundef 1, i64 noundef 144) #9
  %42 = icmp eq ptr %41, null
  br i1 %42, label %43, label %44

43:                                               ; preds = %40
  tail call void (ptr, i32, ptr, ...) @archive_set_error(ptr noundef %0, i32 noundef 12, ptr noundef nonnull @.str.14) #7
  br label %59

44:                                               ; preds = %40
  %45 = getelementptr inbounds nuw i8, ptr %41, i64 8
  store ptr %.046.lcssa69, ptr %45, align 8, !tbaa !13
  %46 = getelementptr inbounds nuw i8, ptr %41, i64 24
  store ptr %0, ptr %46, align 8, !tbaa !21
  %47 = getelementptr inbounds nuw i8, ptr %0, i64 632
  %48 = load ptr, ptr %47, align 8, !tbaa !22
  %49 = getelementptr inbounds nuw i8, ptr %41, i64 16
  store ptr %48, ptr %49, align 8, !tbaa !36
  store ptr %41, ptr %47, align 8, !tbaa !22
  %50 = getelementptr inbounds nuw i8, ptr %.046.lcssa69, i64 16
  %51 = load ptr, ptr %50, align 8, !tbaa !37
  %52 = getelementptr inbounds nuw i8, ptr %51, i64 8
  %53 = load ptr, ptr %52, align 8, !tbaa !38
  %54 = tail call i32 %53(ptr noundef nonnull %41) #7
  %.not57 = icmp eq i32 %54, 0
  br i1 %.not57, label %56, label %55

55:                                               ; preds = %44
  tail call void @__archive_read_free_filters(ptr noundef nonnull %0) #7
  br label %59

56:                                               ; preds = %2, %44
  %.04561 = phi i32 [ %.045.ph, %44 ], [ %1, %2 ]
  %57 = getelementptr inbounds nuw i8, ptr %0, i64 640
  store i32 1, ptr %57, align 8, !tbaa !40
  %58 = tail call i32 @llvm.smin.i32(i32 %.04561, i32 0)
  br label %59

59:                                               ; preds = %56, %55, %43, %split.thread, %27, %10
  %.0 = phi i32 [ -30, %27 ], [ -30, %split.thread ], [ -30, %43 ], [ -30, %55 ], [ %58, %56 ], [ -30, %10 ]
  call void @llvm.lifetime.end.p0(i64 20, ptr nonnull %3) #7
  ret i32 %.0
}